; Function Attrs: nofree norecurse nosync nounwind memory(read, inaccessiblemem: none) uwtable
define internal range(i32 -255, 256) i32 @str_end_cmp(i64 noundef %0, i64 noundef %1) #8 {
  %3 = inttoptr i64 %0 to ptr
  %4 = inttoptr i64 %1 to ptr
  %5 = getelementptr inbounds nuw i8, ptr %3, i64 8
  %6 = load ptr, ptr %5, align 8, !tbaa !13
  %7 = load ptr, ptr %3, align 8, !tbaa !16
  %8 = ptrtoint ptr %6 to i64
  %9 = ptrtoint ptr %7 to i64
  %10 = sub i64 %8, %9
  %11 = getelementptr inbounds nuw i8, ptr %4, i64 8
  %12 = load ptr, ptr %11, align 8, !tbaa !13
  %13 = load ptr, ptr %4, align 8, !tbaa !16
  %14 = ptrtoint ptr %12 to i64
  %15 = ptrtoint ptr %13 to i64
  %16 = sub i64 %14, %15
  %.not = icmp eq i64 %10, %16
  br i1 %.not, label %.preheader, label %.loopexit

.preheader:                                       ; preds = %2
  %17 = icmp ult ptr %7, %6
  br i1 %17, label %.lr.ph, label %.loopexit

.lr.ph:                                           ; preds = %.preheader, %23
  %.01621 = phi ptr [ %25, %23 ], [ %13, %.preheader ]
  %.01720 = phi ptr [ %24, %23 ], [ %7, %.preheader ]
  %18 = load i8, ptr %.01720, align 1, !tbaa !10
  %19 = zext i8 %18 to i32
  %20 = load i8, ptr %.01621, align 1, !tbaa !10
  %21 = zext i8 %20 to i32
  %22 = sub nsw i32 %19, %21
  %.not19 = icmp eq i32 %22, 0
  br i1 %.not19, label %23, label %.loopexit

23:                                               ; preds = %.lr.ph
  %24 = getelementptr inbounds nuw i8, ptr %.01720, i64 1
  %25 = getelementptr inbounds nuw i8, ptr %.01621, i64 1
  %exitcond.not = icmp eq ptr %24, %6
  br i1 %exitcond.not, label %.loopexit, label %.lr.ph, !llvm.loop !17

.loopexit:                                        ; preds = %.lr.ph, %23, %.preheader, %2
  %.0 = phi i32 [ 1, %2 ], [ 0, %.preheader ], [ %22, %.lr.ph ], [ 0, %23 ]
  ret i32 %.0
}